target datalayout = "e-m:e-p270:32:32-p271:32:32-p272:64:64-i64:64-i128:128-f80:128-n8:16:32:64-S128"
target triple = "x86_64-pc-linux-gnu"

@simd_support = internal thread_local global i32 -1, align 4
@simd_huffman = internal thread_local global i32 1, align 4
@.str = private unnamed_addr constant [16 x i8] c"JSIMD_FORCESSE2\00", align 1
@.str.1 = private unnamed_addr constant [2 x i8] c"1\00", align 1
@.str.2 = private unnamed_addr constant [16 x i8] c"JSIMD_FORCEAVX2\00", align 1
@.str.3 = private unnamed_addr constant [16 x i8] c"JSIMD_FORCENONE\00", align 1
@.str.4 = private unnamed_addr constant [16 x i8] c"JSIMD_NOHUFFENC\00", align 1

; Function Attrs: alwaysinline nounwind uwtable
define internal i32 @GETENV_S(ptr noundef %0, i64 noundef %1, ptr noundef %2) #5 {
  %4 = alloca i32, align 4
  %5 = alloca ptr, align 8
  %6 = alloca i64, align 8
  %7 = alloca ptr, align 8
  %8 = alloca ptr, align 8
  %9 = alloca i32, align 4
  store ptr %0, ptr %5, align 8, !tbaa !64
  store i64 %1, ptr %6, align 8, !tbaa !68
  store ptr %2, ptr %7, align 8, !tbaa !64
  call void @llvm.lifetime.start.p0(i64 8, ptr %8) #9
  %10 = load ptr, ptr %5, align 8, !tbaa !64
  %11 = icmp ne ptr %10, null
  br i1 %11, label %18, label %12

12:                                               ; preds = %3
  %13 = load i64, ptr %6, align 8, !tbaa !68
  %14 = icmp eq i64 %13, 0
  br i1 %14, label %15, label %16

15:                                               ; preds = %12
  store i32 0, ptr %4, align 4
  store i32 1, ptr %9, align 4
  br label %48

16:                                               ; preds = %12
  %17 = call ptr @__errno_location() #11
  store i32 22, ptr %17, align 4, !tbaa !3
  store i32 22, ptr %4, align 4
  store i32 1, ptr %9, align 4
  br label %48

18:                                               ; preds = %3
  %19 = load i64, ptr %6, align 8, !tbaa !68
  %20 = icmp eq i64 %19, 0
  br i1 %20, label %21, label %23

21:                                               ; preds = %18
  %22 = call ptr @__errno_location() #11
  store i32 22, ptr %22, align 4, !tbaa !3
  store i32 22, ptr %4, align 4
  store i32 1, ptr %9, align 4
  br label %48

23:                                               ; preds = %18
  %24 = load ptr, ptr %7, align 8, !tbaa !64
  %25 = icmp ne ptr %24, null
  br i1 %25, label %28, label %26

26:                                               ; preds = %23
  %27 = load ptr, ptr %5, align 8, !tbaa !64
  store i8 0, ptr %27, align 1, !tbaa !70
  store i32 0, ptr %4, align 4
  store i32 1, ptr %9, align 4
  br label %48

28:                                               ; preds = %23
  %29 = load ptr, ptr %7, align 8, !tbaa !64
  %30 = call ptr @getenv(ptr noundef %29) #9
  store ptr %30, ptr %8, align 8, !tbaa !64
  %31 = load ptr, ptr %8, align 8, !tbaa !64
  %32 = icmp ne ptr %31, null
  br i1 %32, label %35, label %33

33:                                               ; preds = %28
  %34 = load ptr, ptr %5, align 8, !tbaa !64
  store i8 0, ptr %34, align 1, !tbaa !70
  store i32 0, ptr %4, align 4
  store i32 1, ptr %9, align 4
  br label %48

35:                                               ; preds = %28
  %36 = load ptr, ptr %8, align 8, !tbaa !64
  %37 = call i64 @strlen(ptr noundef %36) #10
  %38 = add i64 %37, 1
  %39 = load i64, ptr %6, align 8, !tbaa !68
  %40 = icmp ugt i64 %38, %39
  br i1 %40, label %41, label %43

41:                                               ; preds = %35
  %42 = load ptr, ptr %5, align 8, !tbaa !64
  store i8 0, ptr %42, align 1, !tbaa !70
  store i32 34, ptr %4, align 4
  store i32 1, ptr %9, align 4
  br label %48

43:                                               ; preds = %35
  %44 = load ptr, ptr %5, align 8, !tbaa !64
  %45 = load ptr, ptr %8, align 8, !tbaa !64
  %46 = load i64, ptr %6, align 8, !tbaa !68
  %47 = call ptr @strncpy(ptr noundef %44, ptr noundef %45, i64 noundef %46) #9
  store i32 0, ptr %4, align 4
  store i32 1, ptr %9, align 4
  br label %48

48:                                               ; preds = %43, %41, %33, %26, %21, %16, %15
  call void @llvm.lifetime.end.p0(i64 8, ptr %8) #9
  %49 = load i32, ptr %4, align 4
  ret i32 %49
}

; Function Attrs: nounwind uwtable
define internal void @init_simd() #0 {
  %1 = alloca [2 x i8], align 1
  %2 = alloca i32, align 4
  call void @llvm.lifetime.start.p0(i64 2, ptr %1) #9
  call void @llvm.memset.p0.i64(ptr align 1 %1, i8 0, i64 2, i1 false)
  %3 = call align 4 ptr @llvm.threadlocal.address.p0(ptr align 4 @simd_support)
  %4 = load i32, ptr %3, align 4, !tbaa !3
  %5 = icmp ne i32 %4, -1
  br i1 %5, label %6, label %7

6:                                                ; preds = %0
  store i32 1, ptr %2, align 4
  br label %54

7:                                                ; preds = %0
  %8 = call i32 @jpeg_simd_cpu_support()
  %9 = call align 4 ptr @llvm.threadlocal.address.p0(ptr align 4 @simd_support)
  store i32 %8, ptr %9, align 4, !tbaa !3
  %10 = getelementptr inbounds [2 x i8], ptr %1, i64 0, i64 0
  %11 = call i32 @GETENV_S(ptr noundef %10, i64 noundef 2, ptr noundef @.str)
  %12 = icmp ne i32 %11, 0
  br i1 %12, label %21, label %13

13:                                               ; preds = %7
  %14 = getelementptr inbounds [2 x i8], ptr %1, i64 0, i64 0
  %15 = call i32 @strcmp(ptr noundef %14, ptr noundef @.str.1) #10
  %16 = icmp ne i32 %15, 0
  br i1 %16, label %21, label %17

17:                                               ; preds = %13
  %18 = call align 4 ptr @llvm.threadlocal.address.p0(ptr align 4 @simd_support)
  %19 = load i32, ptr %18, align 4, !tbaa !3
  %20 = and i32 %19, 8
  store i32 %20, ptr %18, align 4, !tbaa !3
  br label %21

21:                                               ; preds = %17, %13, %7
  %22 = getelementptr inbounds [2 x i8], ptr %1, i64 0, i64 0
  %23 = call i32 @GETENV_S(ptr noundef %22, i64 noundef 2, ptr noundef @.str.2)
  %24 = icmp ne i32 %23, 0
  br i1 %24, label %33, label %25

25:                                               ; preds = %21
  %26 = getelementptr inbounds [2 x i8], ptr %1, i64 0, i64 0
  %27 = call i32 @strcmp(ptr noundef %26, ptr noundef @.str.1) #10
  %28 = icmp ne i32 %27, 0
  br i1 %28, label %33, label %29

29:                                               ; preds = %25
  %30 = call align 4 ptr @llvm.threadlocal.address.p0(ptr align 4 @simd_support)
  %31 = load i32, ptr %30, align 4, !tbaa !3
  %32 = and i32 %31, 128
  store i32 %32, ptr %30, align 4, !tbaa !3
  br label %33

33:                                               ; preds = %29, %25, %21
  %34 = getelementptr inbounds [2 x i8], ptr %1, i64 0, i64 0
  %35 = call i32 @GETENV_S(ptr noundef %34, i64 noundef 2, ptr noundef @.str.3)
  %36 = icmp ne i32 %35, 0
  br i1 %36, label %43, label %37

37:                                               ; preds = %33
  %38 = getelementptr inbounds [2 x i8], ptr %1, i64 0, i64 0
  %39 = call i32 @strcmp(ptr noundef %38, ptr noundef @.str.1) #10
  %40 = icmp ne i32 %39, 0
  br i1 %40, label %43, label %41

41:                                               ; preds = %37
  %42 = call align 4 ptr @llvm.threadlocal.address.p0(ptr align 4 @simd_support)
  store i32 0, ptr %42, align 4, !tbaa !3
  br label %43

43:                                               ; preds = %41, %37, %33
  %44 = getelementptr inbounds [2 x i8], ptr %1, i64 0, i64 0
  %45 = call i32 @GETENV_S(ptr noundef %44, i64 noundef 2, ptr noundef @.str.4)
  %46 = icmp ne i32 %45, 0
  br i1 %46, label %53, label %47

47:                                               ; preds = %43
  %48 = getelementptr inbounds [2 x i8], ptr %1, i64 0, i64 0
  %49 = call i32 @strcmp(ptr noundef %48, ptr noundef @.str.1) #10
  %50 = icmp ne i32 %49, 0
  br i1 %50, label %53, label %51

51:                                               ; preds = %47
  %52 = call align 4 ptr @llvm.threadlocal.address.p0(ptr align 4 @simd_huffman)
  store i32 0, ptr %52, align 4, !tbaa !3
  br label %53

53:                                               ; preds = %51, %47, %43
  store i32 0, ptr %2, align 4
  br label %54

54:                                               ; preds = %53, %6
  call void @llvm.lifetime.end.p0(i64 2, ptr %1) #9
  %55 = load i32, ptr %2, align 4
  switch i32 %55, label %57 [
    i32 0, label %56
    i32 1, label %56
  ]

56:                                               ; preds = %54, %54
  ret void

57:                                               ; preds = %54
  unreachable
}