; Function Attrs: nounwind uwtable
define internal fastcc void @init_simd() unnamed_addr #0 {
  %1 = alloca [2 x i8], align 2
  call void @llvm.lifetime.start.p0(i64 2, ptr nonnull %1) #8
  store i16 0, ptr %1, align 2
  %2 = tail call align 4 ptr @llvm.threadlocal.address.p0(ptr align 4 @simd_support)
  %3 = load i32, ptr %2, align 4, !tbaa !3
  %.not = icmp eq i32 %3, -1
  br i1 %.not, label %4, label %GETENV_S.exit20

4:                                                ; preds = %0
  %5 = tail call i32 @jpeg_simd_cpu_support() #8
  store i32 %5, ptr %2, align 4, !tbaa !3
  %6 = tail call ptr @getenv(ptr noundef nonnull @.str) #8
  %.not18.i = icmp eq ptr %6, null
  br i1 %.not18.i, label %7, label %8

7:                                                ; preds = %4
  store i8 0, ptr %1, align 2, !tbaa !7
  br label %14

8:                                                ; preds = %4
  %9 = tail call i64 @strlen(ptr noundef nonnull dereferenceable(1) %6) #9
  %10 = add i64 %9, -2
  %11 = icmp ult i64 %10, -3
  br i1 %11, label %GETENV_S.exit, label %12

12:                                               ; preds = %8
  %13 = call ptr @strncpy(ptr noundef nonnull dereferenceable(1) %1, ptr noundef nonnull dereferenceable(1) %6, i64 noundef 2) #8
  br label %14

GETENV_S.exit:                                    ; preds = %8
  store i8 0, ptr %1, align 2, !tbaa !7
  br label %17

14:                                               ; preds = %12, %7
  %lhsv = load i16, ptr %1, align 2
  %.not29 = icmp eq i16 %lhsv, 49
  br i1 %.not29, label %15, label %17

15:                                               ; preds = %14
  %16 = and i32 %5, 8
  store i32 %16, ptr %2, align 4, !tbaa !3
  br label %17

17:                                               ; preds = %GETENV_S.exit, %15, %14
  %18 = phi i32 [ %5, %GETENV_S.exit ], [ %16, %15 ], [ %5, %14 ]
  %19 = call ptr @getenv(ptr noundef nonnull @.str.2) #8
  %.not18.i12 = icmp eq ptr %19, null
  br i1 %.not18.i12, label %20, label %21

20:                                               ; preds = %17
  store i8 0, ptr %1, align 2, !tbaa !7
  br label %27

21:                                               ; preds = %17
  %22 = call i64 @strlen(ptr noundef nonnull dereferenceable(1) %19) #9
  %23 = add i64 %22, -2
  %24 = icmp ult i64 %23, -3
  br i1 %24, label %GETENV_S.exit14, label %25

25:                                               ; preds = %21
  %26 = call ptr @strncpy(ptr noundef nonnull dereferenceable(1) %1, ptr noundef nonnull dereferenceable(1) %19, i64 noundef 2) #8
  br label %27

GETENV_S.exit14:                                  ; preds = %21
  store i8 0, ptr %1, align 2, !tbaa !7
  br label %30

27:                                               ; preds = %25, %20
  %lhsv30 = load i16, ptr %1, align 2
  %.not31 = icmp eq i16 %lhsv30, 49
  br i1 %.not31, label %28, label %30

28:                                               ; preds = %27
  %29 = and i32 %18, 128
  store i32 %29, ptr %2, align 4, !tbaa !3
  br label %30

30:                                               ; preds = %GETENV_S.exit14, %28, %27
  %31 = call ptr @getenv(ptr noundef nonnull @.str.3) #8
  %.not18.i15 = icmp eq ptr %31, null
  br i1 %.not18.i15, label %32, label %33

32:                                               ; preds = %30
  store i8 0, ptr %1, align 2, !tbaa !7
  br label %39

33:                                               ; preds = %30
  %34 = call i64 @strlen(ptr noundef nonnull dereferenceable(1) %31) #9
  %35 = add i64 %34, -2
  %36 = icmp ult i64 %35, -3
  br i1 %36, label %GETENV_S.exit17, label %37

37:                                               ; preds = %33
  %38 = call ptr @strncpy(ptr noundef nonnull dereferenceable(1) %1, ptr noundef nonnull dereferenceable(1) %31, i64 noundef 2) #8
  br label %39

GETENV_S.exit17:                                  ; preds = %33
  store i8 0, ptr %1, align 2, !tbaa !7
  br label %41

39:                                               ; preds = %37, %32
  %lhsv32 = load i16, ptr %1, align 2
  %.not33 = icmp eq i16 %lhsv32, 49
  br i1 %.not33, label %40, label %41

40:                                               ; preds = %39
  store i32 0, ptr %2, align 4, !tbaa !3
  br label %41

41:                                               ; preds = %GETENV_S.exit17, %40, %39
  %42 = call ptr @getenv(ptr noundef nonnull @.str.4) #8
  %.not18.i18 = icmp eq ptr %42, null
  br i1 %.not18.i18, label %43, label %44

43:                                               ; preds = %41
  store i8 0, ptr %1, align 2, !tbaa !7
  br label %50

44:                                               ; preds = %41
  %45 = call i64 @strlen(ptr noundef nonnull dereferenceable(1) %42) #9
  %46 = add i64 %45, -2
  %47 = icmp ult i64 %46, -3
  br i1 %47, label %GETENV_S.exit20, label %48

48:                                               ; preds = %44
  %49 = call ptr @strncpy(ptr noundef nonnull dereferenceable(1) %1, ptr noundef nonnull dereferenceable(1) %42, i64 noundef 2) #8
  br label %50

50:                                               ; preds = %48, %43
  %lhsv34 = load i16, ptr %1, align 2
  %.not35 = icmp eq i16 %lhsv34, 49
  br i1 %.not35, label %51, label %GETENV_S.exit20

51:                                               ; preds = %50
  %52 = call align 4 ptr @llvm.threadlocal.address.p0(ptr align 4 @simd_huffman)
  store i32 0, ptr %52, align 4, !tbaa !3
  br label %GETENV_S.exit20

GETENV_S.exit20:                                  ; preds = %44, %50, %51, %0
  call void @llvm.lifetime.end.p0(i64 2, ptr nonnull %1) #8
  ret void
}